; Function Attrs: null_pointer_is_valid sspstrong uwtable
define internal i32 @dissect_afsfidtaggedname(ptr noundef %0, i32 noundef %1, ptr noundef %2, ptr noundef %3, ptr noundef %4, ptr noundef %5) #0 {
  %7 = alloca ptr, align 8
  call void @llvm.lifetime.start.p0(i64 8, ptr nonnull %7) #4
  store ptr null, ptr %7, align 8
  %8 = getelementptr inbounds nuw i8, ptr %4, i64 25
  %9 = load i8, ptr %8, align 1, !range !6, !noundef !7
  %10 = trunc nuw i8 %9 to i1
  br i1 %10, label %20, label %11

11:                                               ; preds = %6
  %.not = icmp eq ptr %3, null
  br i1 %.not, label %15, label %12

12:                                               ; preds = %11
  %13 = load i32, ptr @ett_fileexp_afsfidtaggedname, align 4
  %14 = call ptr @proto_tree_add_subtree(ptr noundef nonnull %3, ptr noundef %0, i32 noundef %1, i32 noundef -1, i32 noundef %13, ptr noundef nonnull %7, ptr noundef nonnull @.str.444)
  br label %15

15:                                               ; preds = %12, %11
  %.022 = phi ptr [ %14, %12 ], [ null, %11 ]
  %16 = call i32 @dissect_afsFid(ptr noundef %0, i32 noundef %1, ptr noundef %2, ptr noundef %.022, ptr noundef %4, ptr noundef %5)
  %17 = call i32 @dissect_afstaggedname(ptr noundef %0, i32 noundef %16, ptr noundef %2, ptr noundef %.022, ptr noundef %4, ptr noundef %5)
  %18 = load ptr, ptr %7, align 8
  %19 = sub i32 %17, %1
  call void @proto_item_set_len(ptr noundef %18, i32 noundef %19)
  br label %20

20:                                               ; preds = %6, %15
  %.0 = phi i32 [ %17, %15 ], [ %1, %6 ]
  call void @llvm.lifetime.end.p0(i64 8, ptr nonnull %7) #4
  ret i32 %.0
}